target datalayout = "e-m:e-p270:32:32-p271:32:32-p272:64:64-i64:64-i128:128-f80:128-n8:16:32:64-S128"
target triple = "x86_64-pc-linux-gnu"

%class.btVector3 = type { [4 x float] }
%class.btAlignedObjectArray.2 = type <{ [4 x i8], i32, i32, [4 x i8], ptr, i8, [7 x i8] }>
%class.btDeformableMultiBodyDynamicsWorld = type { %class.btMultiBodyDynamicsWorld, ptr, %class.btAlignedObjectArray.24, i32, i8, i8, i8, %struct.btSoftBodyWorldInfo, float, i32, i8, i8, i8, ptr, ptr }
%class.btMultiBodyDynamicsWorld = type { %class.btDiscreteDynamicsWorld.base, [4 x i8], %class.btAlignedObjectArray.14, %class.btAlignedObjectArray.16, %class.btAlignedObjectArray.16, ptr, ptr, %class.btAlignedObjectArray.18, %class.btAlignedObjectArray.2, %class.btAlignedObjectArray.18, %class.btAlignedObjectArray.2, %class.btAlignedObjectArray.20, %class.btAlignedObjectArray.2, %class.btAlignedObjectArray.22 }
%class.btDiscreteDynamicsWorld.base = type <{ %class.btDynamicsWorld, %class.btAlignedObjectArray.6, ptr, ptr, ptr, %class.btAlignedObjectArray.6, %class.btAlignedObjectArray.8, %class.btVector3, float, float, i8, i8, i8, i8, [4 x i8], %class.btAlignedObjectArray.10, i32, i8, [3 x i8], %class.btAlignedObjectArray.12, %class.btSpinMutex }>
%class.btDynamicsWorld = type { %class.btCollisionWorld.base, ptr, ptr, ptr, %struct.btContactSolverInfo }
%class.btCollisionWorld.base = type <{ ptr, %class.btAlignedObjectArray.4, ptr, %struct.btDispatcherInfo, ptr, ptr, i8 }>
%class.btAlignedObjectArray.4 = type <{ [4 x i8], i32, i32, [4 x i8], ptr, i8, [7 x i8] }>
%struct.btDispatcherInfo = type <{ float, i32, i32, float, i8, [7 x i8], ptr, i8, i8, i8, i8, float, i8, [3 x i8], float, i8, [7 x i8] }>
%struct.btContactSolverInfo = type { %struct.btContactSolverInfoData }
%struct.btContactSolverInfoData = type { float, float, float, float, float, i32, float, float, float, float, float, float, float, float, float, float, i32, float, float, float, float, float, i32, i32, i32, float, float, float, float, i8, i8, i32, i32 }
%class.btAlignedObjectArray.6 = type <{ [4 x i8], i32, i32, [4 x i8], ptr, i8, [7 x i8] }>
%class.btAlignedObjectArray.8 = type <{ [4 x i8], i32, i32, [4 x i8], ptr, i8, [7 x i8] }>
%class.btAlignedObjectArray.10 = type <{ [4 x i8], i32, i32, [4 x i8], ptr, i8, [7 x i8] }>
%class.btAlignedObjectArray.12 = type <{ [4 x i8], i32, i32, [4 x i8], ptr, i8, [7 x i8] }>
%class.btSpinMutex = type { i32 }
%class.btAlignedObjectArray.14 = type <{ [4 x i8], i32, i32, [4 x i8], ptr, i8, [7 x i8] }>
%class.btAlignedObjectArray.16 = type <{ [4 x i8], i32, i32, [4 x i8], ptr, i8, [7 x i8] }>
%class.btAlignedObjectArray.18 = type <{ [4 x i8], i32, i32, [4 x i8], ptr, i8, [7 x i8] }>
%class.btAlignedObjectArray.20 = type <{ [4 x i8], i32, i32, [4 x i8], ptr, i8, [7 x i8] }>
%class.btAlignedObjectArray.22 = type <{ [4 x i8], i32, i32, [4 x i8], ptr, i8, [7 x i8] }>
%class.btAlignedObjectArray.24 = type <{ [4 x i8], i32, i32, [4 x i8], ptr, i8, [7 x i8] }>
%struct.btSoftBodyWorldInfo = type { float, float, float, float, %class.btVector3, ptr, ptr, %class.btVector3, %struct.btSparseSdf }
%struct.btSparseSdf = type { %class.btAlignedObjectArray.26, float, float, i32, i32, i32, i32, i32, [4 x i8] }
%class.btAlignedObjectArray.26 = type <{ [4 x i8], i32, i32, [4 x i8], ptr, i8, [7 x i8] }>
%class.btMatrix3x3 = type { [3 x %class.btVector3] }
%class.btTransform = type { %class.btMatrix3x3, %class.btVector3 }
%class.btAlignedObjectArray.38 = type <{ [4 x i8], i32, i32, [4 x i8], ptr, i8, [7 x i8] }>
%class.btCollisionObject = type <{ ptr, %class.btTransform, %class.btTransform, %class.btVector3, %class.btVector3, %class.btVector3, i32, float, ptr, ptr, ptr, ptr, i32, i32, i32, i32, i32, float, float, float, float, float, float, float, i32, [4 x i8], ptr, i32, i32, i32, float, float, float, i32, [4 x i8], %class.btAlignedObjectArray.38, i32, %class.btVector3, [4 x i8] }>

; Function Attrs: inlinehint mustprogress nounwind uwtable
define linkonce_odr dso_local noundef i32 @_ZNK17btCollisionObject18getActivationStateEv(ptr noundef nonnull align 8 dereferenceable(372) %0) #6 comdat align 2 {
  %2 = alloca ptr, align 8
  store ptr %0, ptr %2, align 8, !tbaa !321
  %3 = load ptr, ptr %2, align 8
  %4 = getelementptr inbounds nuw %class.btCollisionObject, ptr %3, i32 0, i32 16
  %5 = load i32, ptr %4, align 8, !tbaa !323
  ret i32 %5
}

; Function Attrs: inlinehint mustprogress nounwind uwtable
define linkonce_odr dso_local noundef nonnull align 8 dereferenceable(8) ptr @_ZN20btAlignedObjectArrayIP10btSoftBodyEixEi(ptr noundef nonnull align 8 dereferenceable(25) %0, i32 noundef %1) #6 comdat align 2 {
  %3 = alloca ptr, align 8
  %4 = alloca i32, align 4
  store ptr %0, ptr %3, align 8, !tbaa !142
  store i32 %1, ptr %4, align 4, !tbaa !9
  %5 = load ptr, ptr %3, align 8
  %6 = getelementptr inbounds nuw %class.btAlignedObjectArray.24, ptr %5, i32 0, i32 4
  %7 = load ptr, ptr %6, align 8, !tbaa !319
  %8 = load i32, ptr %4, align 4, !tbaa !9
  %9 = sext i32 %8 to i64
  %10 = getelementptr inbounds ptr, ptr %7, i64 %9
  ret ptr %10
}

; Function Attrs: inlinehint mustprogress nounwind uwtable
define linkonce_odr dso_local noundef i32 @_ZNK20btAlignedObjectArrayIP10btSoftBodyE4sizeEv(ptr noundef nonnull align 8 dereferenceable(25) %0) #6 comdat align 2 {
  %2 = alloca ptr, align 8
  store ptr %0, ptr %2, align 8, !tbaa !142
  %3 = load ptr, ptr %2, align 8
  %4 = getelementptr inbounds nuw %class.btAlignedObjectArray.24, ptr %3, i32 0, i32 1
  %5 = load i32, ptr %4, align 4, !tbaa !318
  ret i32 %5
}

; Function Attrs: mustprogress uwtable
define dso_local void @_ZN34btDeformableMultiBodyDynamicsWorld21updateActivationStateEf(ptr noundef nonnull align 8 dereferenceable(1056) %0, float noundef %1) unnamed_addr #7 align 2 {
  %3 = alloca ptr, align 8
  %4 = alloca float, align 4
  %5 = alloca i32, align 4
  %6 = alloca ptr, align 8
  store ptr %0, ptr %3, align 8, !tbaa !58
  store float %1, ptr %4, align 4, !tbaa !12
  %7 = load ptr, ptr %3, align 8
  call void @llvm.lifetime.start.p0(i64 4, ptr %5) #4
  store i32 0, ptr %5, align 4, !tbaa !9
  br label %8

8:                                                ; preds = %44, %2
  %9 = load i32, ptr %5, align 4, !tbaa !9
  %10 = getelementptr inbounds nuw %class.btDeformableMultiBodyDynamicsWorld, ptr %7, i32 0, i32 2
  %11 = call noundef i32 @_ZNK20btAlignedObjectArrayIP10btSoftBodyE4sizeEv(ptr noundef nonnull align 8 dereferenceable(25) %10)
  %12 = icmp slt i32 %9, %11
  br i1 %12, label %14, label %13

13:                                               ; preds = %8
  call void @llvm.lifetime.end.p0(i64 4, ptr %5) #4
  br label %47

14:                                               ; preds = %8
  call void @llvm.lifetime.start.p0(i64 8, ptr %6) #4
  %15 = getelementptr inbounds nuw %class.btDeformableMultiBodyDynamicsWorld, ptr %7, i32 0, i32 2
  %16 = load i32, ptr %5, align 4, !tbaa !9
  %17 = call noundef nonnull align 8 dereferenceable(8) ptr @_ZN20btAlignedObjectArrayIP10btSoftBodyEixEi(ptr noundef nonnull align 8 dereferenceable(25) %15, i32 noundef %16)
  %18 = load ptr, ptr %17, align 8, !tbaa !215
  store ptr %18, ptr %6, align 8, !tbaa !215
  %19 = load ptr, ptr %6, align 8, !tbaa !215
  %20 = load float, ptr %4, align 4, !tbaa !12
  call void @_ZN10btSoftBody18updateDeactivationEf(ptr noundef nonnull align 8 dereferenceable(2064) %19, float noundef %20)
  %21 = load ptr, ptr %6, align 8, !tbaa !215
  %22 = call noundef zeroext i1 @_ZN10btSoftBody13wantsSleepingEv(ptr noundef nonnull align 8 dereferenceable(2064) %21)
  br i1 %22, label %23, label %36

23:                                               ; preds = %14
  %24 = load ptr, ptr %6, align 8, !tbaa !215
  %25 = call noundef i32 @_ZNK17btCollisionObject18getActivationStateEv(ptr noundef nonnull align 8 dereferenceable(372) %24)
  %26 = icmp eq i32 %25, 1
  br i1 %26, label %27, label %29

27:                                               ; preds = %23
  %28 = load ptr, ptr %6, align 8, !tbaa !215
  call void @_ZNK17btCollisionObject18setActivationStateEi(ptr noundef nonnull align 8 dereferenceable(372) %28, i32 noundef 3)
  br label %29

29:                                               ; preds = %27, %23
  %30 = load ptr, ptr %6, align 8, !tbaa !215
  %31 = call noundef i32 @_ZNK17btCollisionObject18getActivationStateEv(ptr noundef nonnull align 8 dereferenceable(372) %30)
  %32 = icmp eq i32 %31, 2
  br i1 %32, label %33, label %35

33:                                               ; preds = %29
  %34 = load ptr, ptr %6, align 8, !tbaa !215
  call void @_ZN10btSoftBody15setZeroVelocityEv(ptr noundef nonnull align 8 dereferenceable(2064) %34)
  br label %35

35:                                               ; preds = %33, %29
  br label %43

36:                                               ; preds = %14
  %37 = load ptr, ptr %6, align 8, !tbaa !215
  %38 = call noundef i32 @_ZNK17btCollisionObject18getActivationStateEv(ptr noundef nonnull align 8 dereferenceable(372) %37)
  %39 = icmp ne i32 %38, 4
  br i1 %39, label %40, label %42

40:                                               ; preds = %36
  %41 = load ptr, ptr %6, align 8, !tbaa !215
  call void @_ZNK17btCollisionObject18setActivationStateEi(ptr noundef nonnull align 8 dereferenceable(372) %41, i32 noundef 1)
  br label %42

42:                                               ; preds = %40, %36
  br label %43

43:                                               ; preds = %42, %35
  call void @llvm.lifetime.end.p0(i64 8, ptr %6) #4
  br label %44

44:                                               ; preds = %43
  %45 = load i32, ptr %5, align 4, !tbaa !9
  %46 = add nsw i32 %45, 1
  store i32 %46, ptr %5, align 4, !tbaa !9
  br label %8, !llvm.loop !320

47:                                               ; preds = %13
  %48 = load float, ptr %4, align 4, !tbaa !12
  call void @_ZN24btMultiBodyDynamicsWorld21updateActivationStateEf(ptr noundef nonnull align 8 dereferenceable(848) %7, float noundef %48)
  ret void
}