; Function Attrs: mustprogress uwtable
define dso_local void @_ZN34btDeformableMultiBodyDynamicsWorld21updateActivationStateEf(ptr noundef nonnull align 8 dereferenceable(1056) %0, float noundef %1) unnamed_addr #4 align 2 {
  %3 = getelementptr inbounds nuw i8, ptr %0, i64 860
  %4 = load i32, ptr %3, align 4, !tbaa !142
  %5 = icmp sgt i32 %4, 0
  br i1 %5, label %.lr.ph, label %._crit_edge

.lr.ph:                                           ; preds = %2
  %6 = getelementptr inbounds nuw i8, ptr %0, i64 872
  br label %7

._crit_edge:                                      ; preds = %23, %2
  tail call void @_ZN24btMultiBodyDynamicsWorld21updateActivationStateEf(ptr noundef nonnull align 8 dereferenceable(848) %0, float noundef %1)
  ret void

7:                                                ; preds = %.lr.ph, %23
  %indvars.iv = phi i64 [ 0, %.lr.ph ], [ %indvars.iv.next, %23 ]
  %8 = load ptr, ptr %6, align 8, !tbaa !141
  %9 = getelementptr inbounds nuw ptr, ptr %8, i64 %indvars.iv
  %10 = load ptr, ptr %9, align 8, !tbaa !232
  tail call void @_ZN10btSoftBody18updateDeactivationEf(ptr noundef nonnull align 8 dereferenceable(2064) %10, float noundef %1)
  %11 = tail call noundef zeroext i1 @_ZN10btSoftBody13wantsSleepingEv(ptr noundef nonnull align 8 dereferenceable(2064) %10)
  %12 = getelementptr inbounds nuw i8, ptr %10, i64 240
  %13 = load i32, ptr %12, align 8, !tbaa !325
  br i1 %11, label %14, label %21

14:                                               ; preds = %7
  %15 = icmp eq i32 %13, 1
  br i1 %15, label %16, label %17

16:                                               ; preds = %14
  tail call void @_ZNK17btCollisionObject18setActivationStateEi(ptr noundef nonnull align 8 dereferenceable(372) %10, i32 noundef 3)
  %.pr = load i32, ptr %12, align 8, !tbaa !325
  br label %17

17:                                               ; preds = %16, %14
  %18 = phi i32 [ %.pr, %16 ], [ %13, %14 ]
  %19 = icmp eq i32 %18, 2
  br i1 %19, label %20, label %23

20:                                               ; preds = %17
  tail call void @_ZN10btSoftBody15setZeroVelocityEv(ptr noundef nonnull align 8 dereferenceable(2064) %10)
  br label %23

21:                                               ; preds = %7
  %.not = icmp eq i32 %13, 4
  br i1 %.not, label %23, label %22

22:                                               ; preds = %21
  tail call void @_ZNK17btCollisionObject18setActivationStateEi(ptr noundef nonnull align 8 dereferenceable(372) %10, i32 noundef 1)
  br label %23

23:                                               ; preds = %21, %22, %17, %20
  %indvars.iv.next = add nuw nsw i64 %indvars.iv, 1
  %24 = load i32, ptr %3, align 4, !tbaa !142
  %25 = sext i32 %24 to i64
  %26 = icmp slt i64 %indvars.iv.next, %25
  br i1 %26, label %7, label %._crit_edge, !llvm.loop !391
}